Certificate:
    Data:
        Version: 3 (0x2)
        Serial Number: 1 (0x1)
        Signature Algorithm: sha1WithRSAEncryption
        Issuer: C=US, ST=Colorado, L=Boulder, O=NetworkSystems, OU=fall2014, CN=sainz/emailAddress=foo@bar.com
        Validity
            Not Before: Oct 11 21:27:56 2014 GMT
            Not After : Oct 11 21:27:56 2015 GMT
        Subject: C=US, ST=Colorado, O=NetworkSystems, OU=fall2014, CN=sainz/emailAddress=foo@bar.com
        Subject Public Key Info:
            Public Key Algorithm: rsaEncryption
            RSA Public Key: (1024 bit)
                Modulus (1024 bit):
                    00:b9:0c:e0:6e:74:c7:94:08:fe:3b:22:d5:98:ea:
                    82:81:cd:65:af:dd:e9:13:d3:8c:b7:fd:e0:0b:48:
                    75:b0:ac:90:aa:5e:12:f8:35:a2:55:8d:04:25:52:
                    f5:6c:10:da:58:25:77:5d:64:db:65:75:65:9d:09:
                    d0:ab:9b:d6:fd:fc:7b:8a:1b:4a:7d:6f:b9:71:35:
                    22:21:38:d8:1e:02:17:29:b3:56:f4:03:86:bc:40:
                    ad:58:77:d7:e3:d7:76:a7:45:dd:9a:27:50:cb:a8:
                    3c:7a:69:d7:97:b9:c7:66:cc:11:96:a2:a5:b5:3c:
                    20:33:af:89:3e:5d:1f:30:7d
                Exponent: 65537 (0x10001)
        X509v3 extensions:
            X509v3 Basic Constraints: 
                CA:FALSE
            Netscape Comment: 
                OpenSSL Generated Certificate
            X509v3 Subject Key Identifier: 
                C9:A3:52:DA:97:F6:68:FA:EC:A8:2D:13:6D:72:C5:41:73:B6:C2:5F
            X509v3 Authority Key Identifier: 
                keyid:D4:1F:1C:03:59:07:DB:05:AE:C6:E2:8F:B6:54:20:44:C1:85:83:6B

    Signature Algorithm: sha1WithRSAEncryption
        2c:2b:a3:fa:64:ce:51:7f:5b:14:c6:fd:83:8a:0e:87:80:15:
        67:5e:36:3e:df:46:54:7b:87:f3:76:15:23:02:6f:7d:8a:d0:
        90:39:63:2d:45:6a:bc:9a:de:49:56:6e:ed:0c:c7:ae:04:39:
        a9:29:50:ce:33:fb:74:9b:f1:00:47:6d:2f:34:58:f3:51:11:
        73:82:c3:e3:e2:da:44:4f:de:45:3f:1d:9f:a7:84:dd:44:06:
        45:c4:70:73:1f:4a:f3:85:58:07:1a:ce:c3:a7:58:a9:9a:a9:
        5f:6e:ee:56:b0:79:2b:3a:47:af:e4:a6:66:b6:0b:af:07:8b:
        5b:d6
-----BEGIN CERTIFICATE-----
MIIC9DCCAl2gAwIBAgIBATANBgkqhkiG9w0BAQUFADCBijELMAkGA1UEBhMCVVMx
ETAPBgNVBAgTCENvbG9yYWRvMRAwDgYDVQQHEwdCb3VsZGVyMRcwFQYDVQQKEw5O
ZXR3b3JrU3lzdGVtczERMA8GA1UECxMIZmFsbDIwMTQxDjAMBgNVBAMTBXNhaW56
MRowGAYJKoZIhvcNAQkBFgtmb29AYmFyLmNvbTAeFw0xNDEwMTEyMTI3NTZaFw0x
NTEwMTEyMTI3NTZaMHgxCzAJBgNVBAYTAlVTMREwDwYDVQQIEwhDb2xvcmFkbzEX
MBUGA1UEChMOTmV0d29ya1N5c3RlbXMxETAPBgNVBAsTCGZhbGwyMDE0MQ4wDAYD
VQQDEwVzYWluejEaMBgGCSqGSIb3DQEJARYLZm9vQGJhci5jb20wgZ8wDQYJKoZI
hvcNAQEBBQADgY0AMIGJAoGBALkM4G50x5QI/jsi1ZjqgoHNZa/d6RPTjLf94AtI
dbCskKpeEvg1olWNBCVS9WwQ2lgld11k22V1ZZ0J0Kub1v38e4obSn1vuXE1IiE4
2B4CFymzVvQDhrxArVh31+PXdqdF3ZonUMuoPHpp15e5x2bMEZaipbU8IDOviT5d
HzB9AgMBAAGjezB5MAkGA1UdEwQCMAAwLAYJYIZIAYb4QgENBB8WHU9wZW5TU0wg
R2VuZXJhdGVkIENlcnRpZmljYXRlMB0GA1UdDgQWBBTJo1Lal/Zo+uyoLRNtcsVB
c7bCXzAfBgNVHSMEGDAWgBTUHxwDWQfbBa7G4o+2VCBEwYWDazANBgkqhkiG9w0B
AQUFAAOBgQAsK6P6ZM5Rf1sUxv2Dig6HgBVnXjY+30ZUe4fzdhUjAm99itCQOWMt
RWq8mt5JVm7tDMeuBDmpKVDOM/t0m/EAR20vNFjzURFzgsPj4tpET95FPx2fp4Td
RAZFxHBzH0rzhVgHGs7Dp1ipmqlfbu5WsHkrOkev5KZmtguvB4tb1g==
-----END CERTIFICATE-----
